; Function Attrs: mustprogress uwtable
define dso_local noundef ptr @_ZNK11conformance18JspbEncodingConfig18_InternalSerializeEPhPN6google8protobuf2io19EpsCopyOutputStreamE(ptr nocapture noundef nonnull readonly align 8 dereferenceable(24) %this, ptr noundef %target, ptr noundef %stream) unnamed_addr #3 align 2 {
entry:
  %use_jspb_array_any_format_.i.i = getelementptr inbounds i8, ptr %this, i64 16
  %0 = load i8, ptr %use_jspb_array_any_format_.i.i, align 8
  %1 = and i8 %0, 1
  %tobool.i.i.not = icmp eq i8 %1, 0
  br i1 %tobool.i.i.not, label %if.end, label %if.then

if.then:                                          ; preds = %entry
  %2 = load ptr, ptr %stream, align 8
  %cmp.not.i = icmp ugt ptr %2, %target
  br i1 %cmp.not.i, label %_ZN6google8protobuf2io19EpsCopyOutputStream11EnsureSpaceEPh.exit, label %if.then.i7

if.then.i7:                                       ; preds = %if.then
  %call.i8 = tail call noundef ptr @_ZN6google8protobuf2io19EpsCopyOutputStream19EnsureSpaceFallbackEPh(ptr noundef nonnull align 8 dereferenceable(59) %stream, ptr noundef %target)
  %.pre = load i8, ptr %use_jspb_array_any_format_.i.i, align 8
  %.pre10 = and i8 %.pre, 1
  br label %_ZN6google8protobuf2io19EpsCopyOutputStream11EnsureSpaceEPh.exit

_ZN6google8protobuf2io19EpsCopyOutputStream11EnsureSpaceEPh.exit: ; preds = %if.then, %if.then.i7
  %.pre-phi = phi i8 [ 1, %if.then ], [ %.pre10, %if.then.i7 ]
  %retval.0.i = phi ptr [ %target, %if.then ], [ %call.i8, %if.then.i7 ]
  store i8 8, ptr %retval.0.i, align 1
  %add.ptr.i.i = getelementptr inbounds i8, ptr %retval.0.i, i64 1
  store i8 %.pre-phi, ptr %add.ptr.i.i, align 1
  %add.ptr.i.i9 = getelementptr inbounds i8, ptr %retval.0.i, i64 2
  br label %if.end

if.end:                                           ; preds = %_ZN6google8protobuf2io19EpsCopyOutputStream11EnsureSpaceEPh.exit, %entry
  %target.addr.0 = phi ptr [ %add.ptr.i.i9, %_ZN6google8protobuf2io19EpsCopyOutputStream11EnsureSpaceEPh.exit ], [ %target, %entry ]
  %_internal_metadata_ = getelementptr inbounds i8, ptr %this, i64 8
  %3 = load ptr, ptr %_internal_metadata_, align 8
  %4 = ptrtoint ptr %3 to i64
  %conv.i206 = and i64 %4, 1
  %cmp.i.not = icmp eq i64 %conv.i206, 0
  br i1 %cmp.i.not, label %if.end11, label %if.then.i

if.then.i:                                        ; preds = %if.end
  %and.i = and i64 %4, -2
  %5 = inttoptr i64 %and.i to ptr
  %unknown_fields.i = getelementptr inbounds i8, ptr %5, i64 8
  %call10 = tail call noundef ptr @_ZN6google8protobuf8internal10WireFormat37InternalSerializeUnknownFieldsToArrayERKNS0_15UnknownFieldSetEPhPNS0_2io19EpsCopyOutputStreamE(ptr noundef nonnull align 8 dereferenceable(24) %unknown_fields.i, ptr noundef %target.addr.0, ptr noundef %stream)
  br label %if.end11

if.end11:                                         ; preds = %if.then.i, %if.end
  %target.addr.1 = phi ptr [ %call10, %if.then.i ], [ %target.addr.0, %if.end ]
  ret ptr %target.addr.1
}